
rk3288_elf:     file format elf32-littlearm


Disassembly of section .text:

00090000 <_start>:
   90000:	e3a0db02 	mov	sp, #2048	; 0x800
   90004:	e3a04000 	mov	r4, #0
   90008:	eb000001 	bl	90014 <relocate>
   9000c:	e1a00004 	mov	r0, r4
   90010:	eb00000f 	bl	90054 <main>

00090014 <relocate>:
   90014:	e24f001c 	sub	r0, pc, #28
   90018:	e59f102c 	ldr	r1, [pc, #44]	; 9004c <halt+0x4>
   9001c:	e1500001 	cmp	r0, r1
   90020:	01a0f00e 	moveq	pc, lr
   90024:	e59f2024 	ldr	r2, [pc, #36]	; 90050 <halt+0x8>

00090028 <cpy>:
   90028:	e5903000 	ldr	r3, [r0]
   9002c:	e5813000 	str	r3, [r1]
   90030:	e2800004 	add	r0, r0, #4
   90034:	e2811004 	add	r1, r1, #4
   90038:	e1510002 	cmp	r1, r2
   9003c:	1afffff9 	bne	90028 <cpy>
   90040:	e3a04001 	mov	r4, #1
   90044:	e1a0f00e 	mov	pc, lr

00090048 <halt>:
   90048:	eafffffe 	b	90048 <halt>
   9004c:	00090000 	andeq	r0, r9, r0
   90050:	00090428 	andeq	r0, r9, r8, lsr #8

00090054 <main>:
   90054:	e92d4800 	push	{fp, lr}
   90058:	e28db004 	add	fp, sp, #4
   9005c:	e3a00006 	mov	r0, #6
   90060:	eb000012 	bl	900b0 <led_mode>
   90064:	e59f0004 	ldr	r0, [pc, #4]	; 90070 <main+0x1c>
   90068:	eb000001 	bl	90074 <delay>
   9006c:	eafffffe 	b	9006c <main+0x18>
   90070:	000f4240 	andeq	r4, pc, r0, asr #4

00090074 <delay>:
   90074:	e52db004 	push	{fp}		; (str fp, [sp, #-4]!)
   90078:	e28db000 	add	fp, sp, #0
   9007c:	e24dd014 	sub	sp, sp, #20
   90080:	e50b0010 	str	r0, [fp, #-16]
   90084:	e51b3010 	ldr	r3, [fp, #-16]
   90088:	e50b3008 	str	r3, [fp, #-8]
   9008c:	e1a00000 	nop			; (mov r0, r0)
   90090:	e51b3008 	ldr	r3, [fp, #-8]
   90094:	e2432001 	sub	r2, r3, #1
   90098:	e50b2008 	str	r2, [fp, #-8]
   9009c:	e3530000 	cmp	r3, #0
   900a0:	1afffffa 	bne	90090 <delay+0x1c>
   900a4:	e24bd000 	sub	sp, fp, #0
   900a8:	e49db004 	pop	{fp}		; (ldr fp, [sp], #4)
   900ac:	e12fff1e 	bx	lr

000900b0 <led_mode>:
   900b0:	e92d4800 	push	{fp, lr}
   900b4:	e28db004 	add	fp, sp, #4
   900b8:	e24dd008 	sub	sp, sp, #8
   900bc:	e50b0008 	str	r0, [fp, #-8]
   900c0:	e51b3008 	ldr	r3, [fp, #-8]
   900c4:	e3530000 	cmp	r3, #0
   900c8:	1a000005 	bne	900e4 <led_mode+0x34>
   900cc:	e59f324c 	ldr	r3, [pc, #588]	; 90320 <led_mode+0x270>
   900d0:	e59f2248 	ldr	r2, [pc, #584]	; 90320 <led_mode+0x270>
   900d4:	e5922000 	ldr	r2, [r2]
   900d8:	e3c22006 	bic	r2, r2, #6
   900dc:	e5832000 	str	r2, [r3]
   900e0:	ea00008c 	b	90318 <led_mode+0x268>
   900e4:	e51b3008 	ldr	r3, [fp, #-8]
   900e8:	e3530001 	cmp	r3, #1
   900ec:	1a00000f 	bne	90130 <led_mode+0x80>
   900f0:	e59f3228 	ldr	r3, [pc, #552]	; 90320 <led_mode+0x270>
   900f4:	e59f2224 	ldr	r2, [pc, #548]	; 90320 <led_mode+0x270>
   900f8:	e5922000 	ldr	r2, [r2]
   900fc:	e3c22006 	bic	r2, r2, #6
   90100:	e5832000 	str	r2, [r3]
   90104:	e59f3214 	ldr	r3, [pc, #532]	; 90320 <led_mode+0x270>
   90108:	e59f2210 	ldr	r2, [pc, #528]	; 90320 <led_mode+0x270>
   9010c:	e5922000 	ldr	r2, [r2]
   90110:	e3822002 	orr	r2, r2, #2
   90114:	e5832000 	str	r2, [r3]
   90118:	e59f3204 	ldr	r3, [pc, #516]	; 90324 <led_mode+0x274>
   9011c:	e59f2200 	ldr	r2, [pc, #512]	; 90324 <led_mode+0x274>
   90120:	e5922000 	ldr	r2, [r2]
   90124:	e3c22002 	bic	r2, r2, #2
   90128:	e5832000 	str	r2, [r3]
   9012c:	ea000079 	b	90318 <led_mode+0x268>
   90130:	e51b3008 	ldr	r3, [fp, #-8]
   90134:	e3530002 	cmp	r3, #2
   90138:	1a00000f 	bne	9017c <led_mode+0xcc>
   9013c:	e59f31dc 	ldr	r3, [pc, #476]	; 90320 <led_mode+0x270>
   90140:	e59f21d8 	ldr	r2, [pc, #472]	; 90320 <led_mode+0x270>
   90144:	e5922000 	ldr	r2, [r2]
   90148:	e3c22006 	bic	r2, r2, #6
   9014c:	e5832000 	str	r2, [r3]
   90150:	e59f31c8 	ldr	r3, [pc, #456]	; 90320 <led_mode+0x270>
   90154:	e59f21c4 	ldr	r2, [pc, #452]	; 90320 <led_mode+0x270>
   90158:	e5922000 	ldr	r2, [r2]
   9015c:	e3822004 	orr	r2, r2, #4
   90160:	e5832000 	str	r2, [r3]
   90164:	e59f31b8 	ldr	r3, [pc, #440]	; 90324 <led_mode+0x274>
   90168:	e59f21b4 	ldr	r2, [pc, #436]	; 90324 <led_mode+0x274>
   9016c:	e5922000 	ldr	r2, [r2]
   90170:	e3c22004 	bic	r2, r2, #4
   90174:	e5832000 	str	r2, [r3]
   90178:	ea000066 	b	90318 <led_mode+0x268>
   9017c:	e51b3008 	ldr	r3, [fp, #-8]
   90180:	e3530003 	cmp	r3, #3
   90184:	1a00000a 	bne	901b4 <led_mode+0x104>
   90188:	e59f3190 	ldr	r3, [pc, #400]	; 90320 <led_mode+0x270>
   9018c:	e59f218c 	ldr	r2, [pc, #396]	; 90320 <led_mode+0x270>
   90190:	e5922000 	ldr	r2, [r2]
   90194:	e3822006 	orr	r2, r2, #6
   90198:	e5832000 	str	r2, [r3]
   9019c:	e59f3180 	ldr	r3, [pc, #384]	; 90324 <led_mode+0x274>
   901a0:	e59f217c 	ldr	r2, [pc, #380]	; 90324 <led_mode+0x274>
   901a4:	e5922000 	ldr	r2, [r2]
   901a8:	e3c22006 	bic	r2, r2, #6
   901ac:	e5832000 	str	r2, [r3]
   901b0:	ea000058 	b	90318 <led_mode+0x268>
   901b4:	e51b3008 	ldr	r3, [fp, #-8]
   901b8:	e3530004 	cmp	r3, #4
   901bc:	1a000018 	bne	90224 <led_mode+0x174>
   901c0:	e59f3158 	ldr	r3, [pc, #344]	; 90320 <led_mode+0x270>
   901c4:	e59f2154 	ldr	r2, [pc, #340]	; 90320 <led_mode+0x270>
   901c8:	e5922000 	ldr	r2, [r2]
   901cc:	e3c22006 	bic	r2, r2, #6
   901d0:	e5832000 	str	r2, [r3]
   901d4:	e59f3144 	ldr	r3, [pc, #324]	; 90320 <led_mode+0x270>
   901d8:	e59f2140 	ldr	r2, [pc, #320]	; 90320 <led_mode+0x270>
   901dc:	e5922000 	ldr	r2, [r2]
   901e0:	e3822002 	orr	r2, r2, #2
   901e4:	e5832000 	str	r2, [r3]
   901e8:	e59f3134 	ldr	r3, [pc, #308]	; 90324 <led_mode+0x274>
   901ec:	e59f2130 	ldr	r2, [pc, #304]	; 90324 <led_mode+0x274>
   901f0:	e5922000 	ldr	r2, [r2]
   901f4:	e3822002 	orr	r2, r2, #2
   901f8:	e5832000 	str	r2, [r3]
   901fc:	e59f0124 	ldr	r0, [pc, #292]	; 90328 <led_mode+0x278>
   90200:	ebffff9b 	bl	90074 <delay>
   90204:	e59f3118 	ldr	r3, [pc, #280]	; 90324 <led_mode+0x274>
   90208:	e59f2114 	ldr	r2, [pc, #276]	; 90324 <led_mode+0x274>
   9020c:	e5922000 	ldr	r2, [r2]
   90210:	e3c22002 	bic	r2, r2, #2
   90214:	e5832000 	str	r2, [r3]
   90218:	e59f0108 	ldr	r0, [pc, #264]	; 90328 <led_mode+0x278>
   9021c:	ebffff94 	bl	90074 <delay>
   90220:	eafffff0 	b	901e8 <led_mode+0x138>
   90224:	e51b3008 	ldr	r3, [fp, #-8]
   90228:	e3530005 	cmp	r3, #5
   9022c:	1a000018 	bne	90294 <led_mode+0x1e4>
   90230:	e59f30e8 	ldr	r3, [pc, #232]	; 90320 <led_mode+0x270>
   90234:	e59f20e4 	ldr	r2, [pc, #228]	; 90320 <led_mode+0x270>
   90238:	e5922000 	ldr	r2, [r2]
   9023c:	e3c22006 	bic	r2, r2, #6
   90240:	e5832000 	str	r2, [r3]
   90244:	e59f30d4 	ldr	r3, [pc, #212]	; 90320 <led_mode+0x270>
   90248:	e59f20d0 	ldr	r2, [pc, #208]	; 90320 <led_mode+0x270>
   9024c:	e5922000 	ldr	r2, [r2]
   90250:	e3822004 	orr	r2, r2, #4
   90254:	e5832000 	str	r2, [r3]
   90258:	e59f30c4 	ldr	r3, [pc, #196]	; 90324 <led_mode+0x274>
   9025c:	e59f20c0 	ldr	r2, [pc, #192]	; 90324 <led_mode+0x274>
   90260:	e5922000 	ldr	r2, [r2]
   90264:	e3c22004 	bic	r2, r2, #4
   90268:	e5832000 	str	r2, [r3]
   9026c:	e59f00b4 	ldr	r0, [pc, #180]	; 90328 <led_mode+0x278>
   90270:	ebffff7f 	bl	90074 <delay>
   90274:	e59f30a8 	ldr	r3, [pc, #168]	; 90324 <led_mode+0x274>
   90278:	e59f20a4 	ldr	r2, [pc, #164]	; 90324 <led_mode+0x274>
   9027c:	e5922000 	ldr	r2, [r2]
   90280:	e3822004 	orr	r2, r2, #4
   90284:	e5832000 	str	r2, [r3]
   90288:	e59f0098 	ldr	r0, [pc, #152]	; 90328 <led_mode+0x278>
   9028c:	ebffff78 	bl	90074 <delay>
   90290:	eafffff0 	b	90258 <led_mode+0x1a8>
   90294:	e51b3008 	ldr	r3, [fp, #-8]
   90298:	e3530006 	cmp	r3, #6
   9029c:	1a00001d 	bne	90318 <led_mode+0x268>
   902a0:	e59f3078 	ldr	r3, [pc, #120]	; 90320 <led_mode+0x270>
   902a4:	e59f2074 	ldr	r2, [pc, #116]	; 90320 <led_mode+0x270>
   902a8:	e5922000 	ldr	r2, [r2]
   902ac:	e3822006 	orr	r2, r2, #6
   902b0:	e5832000 	str	r2, [r3]
   902b4:	e59f3068 	ldr	r3, [pc, #104]	; 90324 <led_mode+0x274>
   902b8:	e59f2064 	ldr	r2, [pc, #100]	; 90324 <led_mode+0x274>
   902bc:	e5922000 	ldr	r2, [r2]
   902c0:	e3822002 	orr	r2, r2, #2
   902c4:	e5832000 	str	r2, [r3]
   902c8:	e59f3054 	ldr	r3, [pc, #84]	; 90324 <led_mode+0x274>
   902cc:	e59f2050 	ldr	r2, [pc, #80]	; 90324 <led_mode+0x274>
   902d0:	e5922000 	ldr	r2, [r2]
   902d4:	e3c22004 	bic	r2, r2, #4
   902d8:	e5832000 	str	r2, [r3]
   902dc:	e59f0044 	ldr	r0, [pc, #68]	; 90328 <led_mode+0x278>
   902e0:	ebffff63 	bl	90074 <delay>
   902e4:	e59f3038 	ldr	r3, [pc, #56]	; 90324 <led_mode+0x274>
   902e8:	e59f2034 	ldr	r2, [pc, #52]	; 90324 <led_mode+0x274>
   902ec:	e5922000 	ldr	r2, [r2]
   902f0:	e3c22002 	bic	r2, r2, #2
   902f4:	e5832000 	str	r2, [r3]
   902f8:	e59f3024 	ldr	r3, [pc, #36]	; 90324 <led_mode+0x274>
   902fc:	e59f2020 	ldr	r2, [pc, #32]	; 90324 <led_mode+0x274>
   90300:	e5922000 	ldr	r2, [r2]
   90304:	e3822004 	orr	r2, r2, #4
   90308:	e5832000 	str	r2, [r3]
   9030c:	e59f0014 	ldr	r0, [pc, #20]	; 90328 <led_mode+0x278>
   90310:	ebffff57 	bl	90074 <delay>
   90314:	eaffffe6 	b	902b4 <led_mode+0x204>
   90318:	e24bd004 	sub	sp, fp, #4
   9031c:	e8bd8800 	pop	{fp, pc}
   90320:	ff7f0004 			; <UNDEFINED> instruction: 0xff7f0004
   90324:	ff7f0000 			; <UNDEFINED> instruction: 0xff7f0000
   90328:	000f4240 	andeq	r4, pc, r0, asr #4

0009032c <test_ddr>:
   9032c:	e92d4800 	push	{fp, lr}
   90330:	e28db004 	add	fp, sp, #4
   90334:	e24dd010 	sub	sp, sp, #16
   90338:	e3a03001 	mov	r3, #1
   9033c:	e50b3010 	str	r3, [fp, #-16]
   90340:	e3a03803 	mov	r3, #196608	; 0x30000
   90344:	e50b300c 	str	r3, [fp, #-12]
   90348:	e3a03000 	mov	r3, #0
   9034c:	e50b3008 	str	r3, [fp, #-8]
   90350:	ea000008 	b	90378 <test_ddr+0x4c>
   90354:	e51b300c 	ldr	r3, [fp, #-12]
   90358:	e51b2008 	ldr	r2, [fp, #-8]
   9035c:	e5832000 	str	r2, [r3]
   90360:	e51b300c 	ldr	r3, [fp, #-12]
   90364:	e2833004 	add	r3, r3, #4
   90368:	e50b300c 	str	r3, [fp, #-12]
   9036c:	e51b3008 	ldr	r3, [fp, #-8]
   90370:	e2833001 	add	r3, r3, #1
   90374:	e50b3008 	str	r3, [fp, #-8]
   90378:	e51b3008 	ldr	r3, [fp, #-8]
   9037c:	e3530601 	cmp	r3, #1048576	; 0x100000
   90380:	bafffff3 	blt	90354 <test_ddr+0x28>
   90384:	e3a03803 	mov	r3, #196608	; 0x30000
   90388:	e50b300c 	str	r3, [fp, #-12]
   9038c:	e3a03000 	mov	r3, #0
   90390:	e50b3008 	str	r3, [fp, #-8]
   90394:	ea00000d 	b	903d0 <test_ddr+0xa4>
   90398:	e51b2008 	ldr	r2, [fp, #-8]
   9039c:	e51b300c 	ldr	r3, [fp, #-12]
   903a0:	e5933000 	ldr	r3, [r3]
   903a4:	e1520003 	cmp	r2, r3
   903a8:	0a000002 	beq	903b8 <test_ddr+0x8c>
   903ac:	e3a03000 	mov	r3, #0
   903b0:	e50b3010 	str	r3, [fp, #-16]
   903b4:	ea000008 	b	903dc <test_ddr+0xb0>
   903b8:	e51b300c 	ldr	r3, [fp, #-12]
   903bc:	e2833004 	add	r3, r3, #4
   903c0:	e50b300c 	str	r3, [fp, #-12]
   903c4:	e51b3008 	ldr	r3, [fp, #-8]
   903c8:	e2833001 	add	r3, r3, #1
   903cc:	e50b3008 	str	r3, [fp, #-8]
   903d0:	e51b3008 	ldr	r3, [fp, #-8]
   903d4:	e3530601 	cmp	r3, #1048576	; 0x100000
   903d8:	baffffee 	blt	90398 <test_ddr+0x6c>
   903dc:	e3a03803 	mov	r3, #196608	; 0x30000
   903e0:	e5933000 	ldr	r3, [r3]
   903e4:	e3530001 	cmp	r3, #1
   903e8:	1a000002 	bne	903f8 <test_ddr+0xcc>
   903ec:	e3a00001 	mov	r0, #1
   903f0:	ebffff2e 	bl	900b0 <led_mode>
   903f4:	ea000008 	b	9041c <test_ddr+0xf0>
   903f8:	e59f3024 	ldr	r3, [pc, #36]	; 90424 <test_ddr+0xf8>
   903fc:	e5933000 	ldr	r3, [r3]
   90400:	e3530008 	cmp	r3, #8
   90404:	1a000002 	bne	90414 <test_ddr+0xe8>
   90408:	e3a00003 	mov	r0, #3
   9040c:	ebffff27 	bl	900b0 <led_mode>
   90410:	ea000001 	b	9041c <test_ddr+0xf0>
   90414:	e3a00002 	mov	r0, #2
   90418:	ebffff24 	bl	900b0 <led_mode>
   9041c:	e24bd004 	sub	sp, fp, #4
   90420:	e8bd8800 	pop	{fp, pc}
   90424:	00030020 	andeq	r0, r3, r0, lsr #32

Disassembly of section .ARM.attributes:

00000000 <.ARM.attributes>:
   0:	00002641 	andeq	r2, r0, r1, asr #12
   4:	61656100 	cmnvs	r5, r0, lsl #2
   8:	01006962 	tsteq	r0, r2, ror #18
   c:	0000001c 	andeq	r0, r0, ip, lsl r0
  10:	45543505 	ldrbmi	r3, [r4, #-1285]	; 0xfffffafb
  14:	08040600 	stmdaeq	r4, {r9, sl}
  18:	12010901 	andne	r0, r1, #16384	; 0x4000
  1c:	15011404 	strne	r1, [r1, #-1028]	; 0xfffffbfc
  20:	18031701 	stmdane	r3, {r0, r8, r9, sl, ip}
  24:	Address 0x00000024 is out of bounds.


Disassembly of section .comment:

00000000 <.comment>:
   0:	3a434347 	bcc	10d0d24 <__bss_end+0x10408fc>
   4:	6f532820 	svcvs	0x00532820
   8:	65637275 	strbvs	r7, [r3, #-629]!	; 0xfffffd8b
   c:	43207972 	teqmi	r0, #1867776	; 0x1c8000
  10:	4265646f 	rsbmi	r6, r5, #1862270976	; 0x6f000000
  14:	68636e65 	stmdavs	r3!, {r0, r2, r5, r6, r9, sl, fp, sp, lr}^
  18:	74694c20 	strbtvc	r4, [r9], #-3104	; 0xfffff3e0
  1c:	30322065 	eorscc	r2, r2, r5, rrx
  20:	302e3431 	eorcc	r3, lr, r1, lsr r4
  24:	39322d35 	ldmdbcc	r2!, {r0, r2, r4, r5, r8, sl, fp, sp}
  28:	2e342029 	cdpcs	0, 3, cr2, cr4, cr9, {1}
  2c:	20332e38 	eorscs	r2, r3, r8, lsr lr
  30:	34313032 	ldrtcc	r3, [r1], #-50	; 0xffffffce
  34:	30323330 	eorscc	r3, r2, r0, lsr r3
  38:	72702820 	rsbsvc	r2, r0, #32, 16	; 0x200000
  3c:	6c657265 	sfmvs	f7, 2, [r5], #-404	; 0xfffffe6c
  40:	65736165 	ldrbvs	r6, [r3, #-357]!	; 0xfffffe9b
  44:	Address 0x00000044 is out of bounds.


Disassembly of section .debug_line:

00000000 <.debug_line>:
   0:	00000047 	andeq	r0, r0, r7, asr #32
   4:	001e0002 	andseq	r0, lr, r2
   8:	01020000 	mrseq	r0, (UNDEF: 2)
   c:	000d0efb 	strdeq	r0, [sp], -fp
  10:	01010101 	tsteq	r1, r1, lsl #2
  14:	01000000 	mrseq	r0, (UNDEF: 0)
  18:	00010000 	andeq	r0, r1, r0
  1c:	72617473 	rsbvc	r7, r1, #1929379840	; 0x73000000
  20:	00532e74 	subseq	r2, r3, r4, ror lr
  24:	00000000 	andeq	r0, r0, r0
  28:	00020500 	andeq	r0, r2, r0, lsl #10
  2c:	18000900 	stmdane	r0, {r8, fp}
  30:	2f302f30 	svccs	0x00302f30
  34:	2f2f2f31 	svccs	0x002f2f31
  38:	2f2f3030 	svccs	0x002f3030
  3c:	2f2f2f2f 	svccs	0x002f2f2f
  40:	6f03322f 	svcvs	0x0003322f
  44:	0202322e 	andeq	r3, r2, #-536870910	; 0xe0000002
  48:	37010100 	strcc	r0, [r1, -r0, lsl #2]
  4c:	02000000 	andeq	r0, r0, #0
  50:	00001d00 	andeq	r1, r0, r0, lsl #26
  54:	fb010200 	blx	4085e <_start-0x4f7a2>
  58:	01000d0e 	tsteq	r0, lr, lsl #26
  5c:	00010101 	andeq	r0, r1, r1, lsl #2
  60:	00010000 	andeq	r0, r1, r0
  64:	6d000100 	stfvss	f0, [r0, #-0]
  68:	2e6e6961 	cdpcs	9, 6, cr6, cr14, cr1, {3}
  6c:	00000063 	andeq	r0, r0, r3, rrx
  70:	05000000 	streq	r0, [r0, #-0]
  74:	09005402 	stmdbeq	r0, {r1, sl, ip, lr}
  78:	4b4b1700 	blmi	12c5c80 <__bss_end+0x1235858>
  7c:	01040200 	mrseq	r0, R12_usr
  80:	0004024c 	andeq	r0, r4, ip, asr #4
  84:	00dd0101 	sbcseq	r0, sp, r1, lsl #2
  88:	00020000 	andeq	r0, r2, r0
  8c:	0000001c 	andeq	r0, r0, ip, lsl r0
  90:	0efb0102 	cdpeq	1, 15, cr0, cr11, cr2, {0}
  94:	0101000d 	tsteq	r1, sp
  98:	00000101 	andeq	r0, r0, r1, lsl #2
  9c:	00000100 	andeq	r0, r0, r0, lsl #2
  a0:	656c0001 	strbvs	r0, [ip, #-1]!
  a4:	00632e64 	rsbeq	r2, r3, r4, ror #28
  a8:	00000000 	andeq	r0, r0, r0
  ac:	74020500 	strvc	r0, [r2], #-1280	; 0xfffffb00
  b0:	03000900 	movweq	r0, #2304	; 0x900
  b4:	4b83010e 	blmi	fe0c04f4 <__bss_end+0xfe0300cc>
  b8:	01040200 	mrseq	r0, R12_usr
  bc:	9f062e06 	svcls	0x00062e06
  c0:	83661003 	cmnhi	r6, #3
  c4:	a068bc68 	rsbge	fp, r8, r8, ror #24
  c8:	a068bc9f 	mlsge	r8, pc, ip, fp	; <UNPREDICTABLE>
  cc:	9f68bc9f 	svcls	0x0068bc9f
  d0:	00a068bd 	strhteq	r6, [r0], sp
  d4:	a3010402 	movwge	r0, #5122	; 0x1402
  d8:	01040200 	mrseq	r0, R12_usr
  dc:	0402009f 	streq	r0, [r2], #-159	; 0xffffff61
  e0:	02004c01 	andeq	r4, r0, #256	; 0x100
  e4:	009f0104 	addseq	r0, pc, r4, lsl #2
  e8:	4b010402 	blmi	410f8 <_start-0x4ef08>
  ec:	009f6830 	addseq	r6, pc, r0, lsr r8	; <UNPREDICTABLE>
  f0:	a1010402 	tstge	r1, r2, lsl #8
  f4:	01040200 	mrseq	r0, R12_usr
  f8:	0402009f 	streq	r0, [r2], #-159	; 0xffffff61
  fc:	02004c01 	andeq	r4, r0, #256	; 0x100
 100:	009f0104 	addseq	r0, pc, r4, lsl #2
 104:	4b010402 	blmi	41114 <_start-0x4eeec>
 108:	02006830 	andeq	r6, r0, #48, 16	; 0x300000
 10c:	00a10104 	adceq	r0, r1, r4, lsl #2
 110:	9f010402 	svcls	0x00010402
 114:	01040200 	mrseq	r0, R12_usr
 118:	0402009f 	streq	r0, [r2], #-159	; 0xffffff61
 11c:	02004c01 	andeq	r4, r0, #256	; 0x100
 120:	009f0104 	addseq	r0, pc, r4, lsl #2
 124:	9f010402 	svcls	0x00010402
 128:	01040200 	mrseq	r0, R12_usr
 12c:	69a3304b 	stmibvs	r3!, {r0, r1, r3, r6, ip, sp}
 130:	02004b4d 	andeq	r4, r0, #78848	; 0x13400
 134:	00680204 	rsbeq	r0, r8, r4, lsl #4
 138:	67020402 	strvs	r0, [r2, -r2, lsl #8]
 13c:	02040200 	andeq	r0, r4, #0, 4
 140:	04020063 	streq	r0, [r2], #-99	; 0xffffff9d
 144:	06660601 	strbteq	r0, [r6], -r1, lsl #12
 148:	a0684b6d 	rsbge	r4, r8, sp, ror #22
 14c:	7903304b 	stmdbvc	r3, {r0, r1, r3, r6, ip, sp}
 150:	04020066 	streq	r0, [r2], #-102	; 0xffffff9a
 154:	06660601 	strbteq	r0, [r6], -r1, lsl #12
 158:	83660b03 	cmnhi	r6, #3072	; 0xc00
 15c:	03688367 	cmneq	r8, #-1677721599	; 0x9c000001
 160:	06024a0a 	streq	r4, [r2], -sl, lsl #20
 164:	Address 0x00000164 is out of bounds.


Disassembly of section .debug_info:

00000000 <.debug_info>:
   0:	00000043 	andeq	r0, r0, r3, asr #32
   4:	00000002 	andeq	r0, r0, r2
   8:	01040000 	mrseq	r0, (UNDEF: 4)
   c:	00000000 	andeq	r0, r0, r0
  10:	00090000 	andeq	r0, r9, r0
  14:	00090054 	andeq	r0, r9, r4, asr r0
  18:	72617473 	rsbvc	r7, r1, #1929379840	; 0x73000000
  1c:	00532e74 	subseq	r2, r3, r4, ror lr
  20:	726f772f 	rsbvc	r7, pc, #12320768	; 0xbc0000
  24:	6b722f6b 	blvs	1c8bdd8 <__bss_end+0x1bfb9b0>
  28:	38383233 	ldmdacc	r8!, {r0, r1, r4, r5, r9, ip, sp}
  2c:	646f632f 	strbtvs	r6, [pc], #-815	; 34 <_start-0x8ffcc>
  30:	656c2f65 	strbvs	r2, [ip, #-3941]!	; 0xfffff09b
  34:	4e470064 	cdpmi	0, 4, cr0, cr7, cr4, {3}
  38:	53412055 	movtpl	r2, #4181	; 0x1055
  3c:	322e3220 	eorcc	r3, lr, #32, 4
  40:	31352e34 	teqcc	r5, r4, lsr lr
  44:	3e800100 	rmfccs	f0, f0, f0
  48:	04000000 	streq	r0, [r0], #-0
  4c:	00001400 	andeq	r1, r0, r0, lsl #8
  50:	00010400 	andeq	r0, r1, r0, lsl #8
  54:	01000000 	mrseq	r0, (UNDEF: 0)
  58:	0000004b 	andeq	r0, r0, fp, asr #32
  5c:	00000052 	andeq	r0, r0, r2, asr r0
  60:	00090054 	andeq	r0, r9, r4, asr r0
  64:	00000020 	andeq	r0, r0, r0, lsr #32
  68:	0000004b 	andeq	r0, r0, fp, asr #32
  6c:	00004602 	andeq	r4, r0, r2, lsl #12
  70:	3a050100 	bcc	140478 <__bss_end+0xb0050>
  74:	54000000 	strpl	r0, [r0], #-0
  78:	20000900 	andcs	r0, r0, r0, lsl #18
  7c:	01000000 	mrseq	r0, (UNDEF: 0)
  80:	0504039c 	streq	r0, [r4, #-924]	; 0xfffffc64
  84:	00746e69 	rsbseq	r6, r4, r9, ror #28
  88:	0000c300 	andeq	ip, r0, r0, lsl #6
  8c:	4b000400 	blmi	1094 <_start-0x8ef6c>
  90:	04000000 	streq	r0, [r0], #-0
  94:	00000001 	andeq	r0, r0, r1
  98:	007c0100 	rsbseq	r0, ip, r0, lsl #2
  9c:	00520000 	subseq	r0, r2, r0
  a0:	00740000 	rsbseq	r0, r4, r0
  a4:	03b40009 			; <UNDEFINED> instruction: 0x03b40009
  a8:	00860000 	addeq	r0, r6, r0
  ac:	8d020000 	stchi	0, cr0, [r2, #-0]
  b0:	01000000 	mrseq	r0, (UNDEF: 0)
  b4:	0900740e 	stmdbeq	r0, {r1, r2, r3, sl, ip, sp, lr}
  b8:	00003c00 	andeq	r3, r0, r0, lsl #24
  bc:	559c0100 	ldrpl	r0, [ip, #256]	; 0x100
  c0:	03000000 	movweq	r0, #0
  c4:	0e010069 	cdpeq	0, 0, cr0, cr1, cr9, {3}
  c8:	00000055 	andeq	r0, r0, r5, asr r0
  cc:	046c9102 	strbteq	r9, [ip], #-258	; 0xfffffefe
  d0:	0000009c 	muleq	r0, ip, r0
  d4:	005c1001 	subseq	r1, ip, r1
  d8:	91020000 	mrsls	r0, (UNDEF: 2)
  dc:	04050074 	streq	r0, [r5], #-116	; 0xffffff8c
  e0:	00006807 	andeq	r6, r0, r7, lsl #16
  e4:	00550600 	subseq	r0, r5, r0, lsl #12
  e8:	a2070000 	andge	r0, r7, #0
  ec:	01000000 	mrseq	r0, (UNDEF: 0)
  f0:	0900b021 	stmdbeq	r0, {r0, r5, ip, sp, pc}
  f4:	00027c00 	andeq	r7, r2, r0, lsl #24
  f8:	859c0100 	ldrhi	r0, [ip, #256]	; 0x100
  fc:	08000000 	stmdaeq	r0, {}	; <UNPREDICTABLE>
 100:	000000a6 	andeq	r0, r0, r6, lsr #1
 104:	00852101 	addeq	r2, r5, r1, lsl #2
 108:	91020000 	mrsls	r0, (UNDEF: 2)
 10c:	04090074 	streq	r0, [r9], #-116	; 0xffffff8c
 110:	746e6905 	strbtvc	r6, [lr], #-2309	; 0xfffff6fb
 114:	00930a00 	addseq	r0, r3, r0, lsl #20
 118:	6a010000 	bvs	40120 <_start-0x4fee0>
 11c:	0009032c 	andeq	r0, r9, ip, lsr #6
 120:	000000fc 	strdeq	r0, [r0], -ip
 124:	690b9c01 	stmdbvs	fp, {r0, sl, fp, ip, pc}
 128:	856c0100 	strbhi	r0, [ip, #-256]!	; 0xffffff00
 12c:	02000000 	andeq	r0, r0, #0
 130:	75047491 	strvc	r7, [r4, #-1169]	; 0xfffffb6f
 134:	01000000 	mrseq	r0, (UNDEF: 0)
 138:	0000556d 	andeq	r5, r0, sp, ror #10
 13c:	70910200 	addsvc	r0, r1, r0, lsl #4
 140:	00008204 	andeq	r8, r0, r4, lsl #4
 144:	856e0100 	strbhi	r0, [lr, #-256]!	; 0xffffff00
 148:	02000000 	andeq	r0, r0, #0
 14c:	00006c91 	muleq	r0, r1, ip

Disassembly of section .debug_abbrev:

00000000 <.debug_abbrev>:
   0:	10001101 	andne	r1, r0, r1, lsl #2
   4:	12011106 	andne	r1, r1, #-2147483647	; 0x80000001
   8:	1b080301 	blne	200c14 <__bss_end+0x1707ec>
   c:	13082508 	movwne	r2, #34056	; 0x8508
  10:	00000005 	andeq	r0, r0, r5
  14:	25011101 	strcs	r1, [r1, #-257]	; 0xfffffeff
  18:	030b130e 	movweq	r1, #45838	; 0xb30e
  1c:	110e1b0e 	tstne	lr, lr, lsl #22
  20:	10061201 	andne	r1, r6, r1, lsl #4
  24:	02000017 	andeq	r0, r0, #23
  28:	193f002e 	ldmdbne	pc!, {r1, r2, r3, r5}	; <UNPREDICTABLE>
  2c:	0b3a0e03 	bleq	e83840 <__bss_end+0xdf3418>
  30:	13490b3b 	movtne	r0, #39739	; 0x9b3b
  34:	06120111 			; <UNDEFINED> instruction: 0x06120111
  38:	42961840 	addsmi	r1, r6, #64, 16	; 0x400000
  3c:	03000019 	movweq	r0, #25
  40:	0b0b0024 	bleq	2c00d8 <__bss_end+0x22fcb0>
  44:	08030b3e 	stmdaeq	r3, {r1, r2, r3, r4, r5, r8, r9, fp}
  48:	01000000 	mrseq	r0, (UNDEF: 0)
  4c:	0e250111 	mcreq	1, 1, r0, cr5, cr1, {0}
  50:	0e030b13 	vmoveq.32	d3[0], r0
  54:	01110e1b 	tsteq	r1, fp, lsl lr
  58:	17100612 			; <UNDEFINED> instruction: 0x17100612
  5c:	2e020000 	cdpcs	0, 0, cr0, cr2, cr0, {0}
  60:	03193f01 	tsteq	r9, #1, 30
  64:	3b0b3a0e 	blcc	2ce8a4 <__bss_end+0x23e47c>
  68:	1119270b 	tstne	r9, fp, lsl #14
  6c:	40061201 	andmi	r1, r6, r1, lsl #4
  70:	19429718 	stmdbne	r2, {r3, r4, r8, r9, sl, ip, pc}^
  74:	00001301 	andeq	r1, r0, r1, lsl #6
  78:	03000503 	movweq	r0, #1283	; 0x503
  7c:	3b0b3a08 	blcc	2ce8a4 <__bss_end+0x23e47c>
  80:	0213490b 	andseq	r4, r3, #180224	; 0x2c000
  84:	04000018 	streq	r0, [r0], #-24	; 0xffffffe8
  88:	0e030034 	mcreq	0, 0, r0, cr3, cr4, {1}
  8c:	0b3b0b3a 	bleq	ec2d7c <__bss_end+0xe32954>
  90:	18021349 	stmdane	r2, {r0, r3, r6, r8, r9, ip}
  94:	24050000 	strcs	r0, [r5], #-0
  98:	3e0b0b00 	vmlacc.f64	d0, d11, d0
  9c:	000e030b 	andeq	r0, lr, fp, lsl #6
  a0:	00350600 	eorseq	r0, r5, r0, lsl #12
  a4:	00001349 	andeq	r1, r0, r9, asr #6
  a8:	3f012e07 	svccc	0x00012e07
  ac:	3a0e0319 	bcc	380d18 <__bss_end+0x2f08f0>
  b0:	270b3b0b 	strcs	r3, [fp, -fp, lsl #22]
  b4:	12011119 	andne	r1, r1, #1073741830	; 0x40000006
  b8:	96184006 	ldrls	r4, [r8], -r6
  bc:	13011942 	movwne	r1, #6466	; 0x1942
  c0:	05080000 	streq	r0, [r8, #-0]
  c4:	3a0e0300 	bcc	380ccc <__bss_end+0x2f08a4>
  c8:	490b3b0b 	stmdbmi	fp, {r0, r1, r3, r8, r9, fp, ip, sp}
  cc:	00180213 	andseq	r0, r8, r3, lsl r2
  d0:	00240900 	eoreq	r0, r4, r0, lsl #18
  d4:	0b3e0b0b 	bleq	f82d08 <__bss_end+0xef28e0>
  d8:	00000803 	andeq	r0, r0, r3, lsl #16
  dc:	3f012e0a 	svccc	0x00012e0a
  e0:	3a0e0319 	bcc	380d4c <__bss_end+0x2f0924>
  e4:	270b3b0b 	strcs	r3, [fp, -fp, lsl #22]
  e8:	12011119 	andne	r1, r1, #1073741830	; 0x40000006
  ec:	96184006 	ldrls	r4, [r8], -r6
  f0:	00001942 	andeq	r1, r0, r2, asr #18
  f4:	0300340b 	movweq	r3, #1035	; 0x40b
  f8:	3b0b3a08 	blcc	2ce920 <__bss_end+0x23e4f8>
  fc:	0213490b 	andseq	r4, r3, #180224	; 0x2c000
 100:	00000018 	andeq	r0, r0, r8, lsl r0

Disassembly of section .debug_aranges:

00000000 <.debug_aranges>:
   0:	0000001c 	andeq	r0, r0, ip, lsl r0
   4:	00000002 	andeq	r0, r0, r2
   8:	00040000 	andeq	r0, r4, r0
   c:	00000000 	andeq	r0, r0, r0
  10:	00090000 	andeq	r0, r9, r0
  14:	00000054 	andeq	r0, r0, r4, asr r0
	...
  20:	0000001c 	andeq	r0, r0, ip, lsl r0
  24:	00470002 	subeq	r0, r7, r2
  28:	00040000 	andeq	r0, r4, r0
  2c:	00000000 	andeq	r0, r0, r0
  30:	00090054 	andeq	r0, r9, r4, asr r0
  34:	00000020 	andeq	r0, r0, r0, lsr #32
	...
  40:	0000001c 	andeq	r0, r0, ip, lsl r0
  44:	00890002 	addeq	r0, r9, r2
  48:	00040000 	andeq	r0, r4, r0
  4c:	00000000 	andeq	r0, r0, r0
  50:	00090074 	andeq	r0, r9, r4, ror r0
  54:	000003b4 			; <UNDEFINED> instruction: 0x000003b4
	...

Disassembly of section .debug_str:

00000000 <.debug_str>:
   0:	20554e47 	subscs	r4, r5, r7, asr #28
   4:	2e342043 	cdpcs	0, 3, cr2, cr4, cr3, {2}
   8:	20332e38 	eorscs	r2, r3, r8, lsr lr
   c:	34313032 	ldrtcc	r3, [r1], #-50	; 0xffffffce
  10:	30323330 	eorscc	r3, r2, r0, lsr r3
  14:	72702820 	rsbsvc	r2, r0, #32, 16	; 0x200000
  18:	6c657265 	sfmvs	f7, 2, [r5], #-404	; 0xfffffe6c
  1c:	65736165 	ldrbvs	r6, [r3, #-357]!	; 0xfffffe9b
  20:	6d2d2029 	stcvs	0, cr2, [sp, #-164]!	; 0xffffff5c
  24:	68637261 	stmdavs	r3!, {r0, r5, r6, r9, ip, sp, lr}^
  28:	6d72613d 	ldfvse	f6, [r2, #-244]!	; 0xffffff0c
  2c:	65743576 	ldrbvs	r3, [r4, #-1398]!	; 0xfffffa8a
  30:	746d2d20 	strbtvc	r2, [sp], #-3360	; 0xfffff2e0
  34:	642d736c 	strtvs	r7, [sp], #-876	; 0xfffffc94
  38:	656c6169 	strbvs	r6, [ip, #-361]!	; 0xfffffe97
  3c:	673d7463 	ldrvs	r7, [sp, -r3, ror #8]!
  40:	2d20756e 	cfstr32cs	mvfx7, [r0, #-440]!	; 0xfffffe48
  44:	616d0067 	cmnvs	sp, r7, rrx
  48:	6d006e69 	stcvs	14, cr6, [r0, #-420]	; 0xfffffe5c
  4c:	2e6e6961 	cdpcs	9, 6, cr6, cr14, cr1, {3}
  50:	772f0063 	strvc	r0, [pc, -r3, rrx]!
  54:	2f6b726f 	svccs	0x006b726f
  58:	32336b72 	eorscc	r6, r3, #116736	; 0x1c800
  5c:	632f3838 	teqvs	pc, #56, 16	; 0x380000
  60:	2f65646f 	svccs	0x0065646f
  64:	0064656c 	rsbeq	r6, r4, ip, ror #10
  68:	69736e75 	ldmdbvs	r3!, {r0, r2, r4, r5, r6, r9, sl, fp, sp, lr}^
  6c:	64656e67 	strbtvs	r6, [r5], #-3687	; 0xfffff199
  70:	746e6920 	strbtvc	r6, [lr], #-2336	; 0xfffff6e0
  74:	66666f00 	strbtvs	r6, [r6], -r0, lsl #30
  78:	00746573 	rsbseq	r6, r4, r3, ror r5
  7c:	2e64656c 	cdpcs	5, 6, cr6, cr4, cr12, {3}
  80:	71650063 	cmnvc	r5, r3, rrx
  84:	5f6c6175 	svcpl	0x006c6175
  88:	67616c66 	strbvs	r6, [r1, -r6, ror #24]!
  8c:	6c656400 	cfstrdvs	mvd6, [r5], #-0
  90:	74007961 	strvc	r7, [r0], #-2401	; 0xfffff69f
  94:	5f747365 	svcpl	0x00747365
  98:	00726464 	rsbseq	r6, r2, r4, ror #8
  9c:	6e756f63 	cdpvs	15, 7, cr6, cr5, cr3, {3}
  a0:	656c0074 	strbvs	r0, [ip, #-116]!	; 0xffffff8c
  a4:	6f6d5f64 	svcvs	0x006d5f64
  a8:	Address 0x000000a8 is out of bounds.


Disassembly of section .debug_frame:

00000000 <.debug_frame>:
   0:	0000000c 	andeq	r0, r0, ip
   4:	ffffffff 			; <UNDEFINED> instruction: 0xffffffff
   8:	7c020001 	stcvc	0, cr0, [r2], {1}
   c:	000d0c0e 	andeq	r0, sp, lr, lsl #24
  10:	00000018 	andeq	r0, r0, r8, lsl r0
  14:	00000000 	andeq	r0, r0, r0
  18:	00090054 	andeq	r0, r9, r4, asr r0
  1c:	00000020 	andeq	r0, r0, r0, lsr #32
  20:	8b080e42 	blhi	203930 <__bss_end+0x173508>
  24:	42018e02 	andmi	r8, r1, #2, 28
  28:	00040b0c 	andeq	r0, r4, ip, lsl #22
  2c:	0000000c 	andeq	r0, r0, ip
  30:	ffffffff 			; <UNDEFINED> instruction: 0xffffffff
  34:	7c020001 	stcvc	0, cr0, [r2], {1}
  38:	000d0c0e 	andeq	r0, sp, lr, lsl #24
  3c:	00000014 	andeq	r0, r0, r4, lsl r0
  40:	0000002c 	andeq	r0, r0, ip, lsr #32
  44:	00090074 	andeq	r0, r9, r4, ror r0
  48:	0000003c 	andeq	r0, r0, ip, lsr r0
  4c:	8b040e42 	blhi	10395c <__bss_end+0x73534>
  50:	0b0d4201 	bleq	35085c <__bss_end+0x2c0434>
  54:	00000018 	andeq	r0, r0, r8, lsl r0
  58:	0000002c 	andeq	r0, r0, ip, lsr #32
  5c:	000900b0 	strheq	r0, [r9], -r0	; <UNPREDICTABLE>
  60:	0000027c 	andeq	r0, r0, ip, ror r2
  64:	8b080e42 	blhi	203974 <__bss_end+0x17354c>
  68:	42018e02 	andmi	r8, r1, #2, 28
  6c:	00040b0c 	andeq	r0, r4, ip, lsl #22
  70:	00000018 	andeq	r0, r0, r8, lsl r0
  74:	0000002c 	andeq	r0, r0, ip, lsr #32
  78:	0009032c 	andeq	r0, r9, ip, lsr #6
  7c:	000000fc 	strdeq	r0, [r0], -ip
  80:	8b080e42 	blhi	203990 <__bss_end+0x173568>
  84:	42018e02 	andmi	r8, r1, #2, 28
  88:	00040b0c 	andeq	r0, r4, ip, lsl #22
