
rk3288_elf:     file format elf32-littlearm


Disassembly of section .text:

00090000 <_start>:
   90000:	e3a0db02 	mov	sp, #2048	; 0x800
   90004:	e3a04000 	mov	r4, #0
   90008:	eb000001 	bl	90014 <relocate>
   9000c:	e1a00004 	mov	r0, r4
   90010:	eb00000f 	bl	90054 <main>

00090014 <relocate>:
   90014:	e24f001c 	sub	r0, pc, #28
   90018:	e59f102c 	ldr	r1, [pc, #44]	; 9004c <halt+0x4>
   9001c:	e1500001 	cmp	r0, r1
   90020:	01a0f00e 	moveq	pc, lr
   90024:	e59f2024 	ldr	r2, [pc, #36]	; 90050 <halt+0x8>

00090028 <cpy>:
   90028:	e5903000 	ldr	r3, [r0]
   9002c:	e5813000 	str	r3, [r1]
   90030:	e2800004 	add	r0, r0, #4
   90034:	e2811004 	add	r1, r1, #4
   90038:	e1510002 	cmp	r1, r2
   9003c:	1afffff9 	bne	90028 <cpy>
   90040:	e3a04001 	mov	r4, #1
   90044:	e1a0f00e 	mov	pc, lr

00090048 <halt>:
   90048:	eafffffe 	b	90048 <halt>
   9004c:	00090000 	andeq	r0, r9, r0
   90050:	00090428 	andeq	r0, r9, r8, lsr #8

00090054 <main>:
   90054:	e92d4800 	push	{fp, lr}
   90058:	e28db004 	add	fp, sp, #4
   9005c:	e3a00006 	mov	r0, #6
   90060:	eb000012 	bl	900b0 <led_mode>
   90064:	e59f0004 	ldr	r0, [pc, #4]	; 90070 <main+0x1c>
   90068:	eb000001 	bl	90074 <delay>
   9006c:	eafffffe 	b	9006c <main+0x18>
   90070:	000f4240 	andeq	r4, pc, r0, asr #4

00090074 <delay>:
   90074:	e52db004 	push	{fp}		; (str fp, [sp, #-4]!)
   90078:	e28db000 	add	fp, sp, #0
   9007c:	e24dd014 	sub	sp, sp, #20
   90080:	e50b0010 	str	r0, [fp, #-16]
   90084:	e51b3010 	ldr	r3, [fp, #-16]
   90088:	e50b3008 	str	r3, [fp, #-8]
   9008c:	e1a00000 	nop			; (mov r0, r0)
   90090:	e51b3008 	ldr	r3, [fp, #-8]
   90094:	e2432001 	sub	r2, r3, #1
   90098:	e50b2008 	str	r2, [fp, #-8]
   9009c:	e3530000 	cmp	r3, #0
   900a0:	1afffffa 	bne	90090 <delay+0x1c>
   900a4:	e24bd000 	sub	sp, fp, #0
   900a8:	e49db004 	pop	{fp}		; (ldr fp, [sp], #4)
   900ac:	e12fff1e 	bx	lr

000900b0 <led_mode>:
   900b0:	e92d4800 	push	{fp, lr}
   900b4:	e28db004 	add	fp, sp, #4
   900b8:	e24dd008 	sub	sp, sp, #8
   900bc:	e50b0008 	str	r0, [fp, #-8]
   900c0:	e51b3008 	ldr	r3, [fp, #-8]
   900c4:	e3530000 	cmp	r3, #0
   900c8:	1a000005 	bne	900e4 <led_mode+0x34>
   900cc:	e59f324c 	ldr	r3, [pc, #588]	; 90320 <led_mode+0x270>
   900d0:	e59f2248 	ldr	r2, [pc, #584]	; 90320 <led_mode+0x270>
   900d4:	e5922000 	ldr	r2, [r2]
   900d8:	e3c22006 	bic	r2, r2, #6
   900dc:	e5832000 	str	r2, [r3]
   900e0:	ea00008c 	b	90318 <led_mode+0x268>
   900e4:	e51b3008 	ldr	r3, [fp, #-8]
   900e8:	e3530001 	cmp	r3, #1
   900ec:	1a00000f 	bne	90130 <led_mode+0x80>
   900f0:	e59f3228 	ldr	r3, [pc, #552]	; 90320 <led_mode+0x270>
   900f4:	e59f2224 	ldr	r2, [pc, #548]	; 90320 <led_mode+0x270>
   900f8:	e5922000 	ldr	r2, [r2]
   900fc:	e3c22006 	bic	r2, r2, #6
   90100:	e5832000 	str	r2, [r3]
   90104:	e59f3214 	ldr	r3, [pc, #532]	; 90320 <led_mode+0x270>
   90108:	e59f2210 	ldr	r2, [pc, #528]	; 90320 <led_mode+0x270>
   9010c:	e5922000 	ldr	r2, [r2]
   90110:	e3822002 	orr	r2, r2, #2
   90114:	e5832000 	str	r2, [r3]
   90118:	e59f3204 	ldr	r3, [pc, #516]	; 90324 <led_mode+0x274>
   9011c:	e59f2200 	ldr	r2, [pc, #512]	; 90324 <led_mode+0x274>
   90120:	e5922000 	ldr	r2, [r2]
   90124:	e3c22002 	bic	r2, r2, #2
   90128:	e5832000 	str	r2, [r3]
   9012c:	ea000079 	b	90318 <led_mode+0x268>
   90130:	e51b3008 	ldr	r3, [fp, #-8]
   90134:	e3530002 	cmp	r3, #2
   90138:	1a00000f 	bne	9017c <led_mode+0xcc>
   9013c:	e59f31dc 	ldr	r3, [pc, #476]	; 90320 <led_mode+0x270>
   90140:	e59f21d8 	ldr	r2, [pc, #472]	; 90320 <led_mode+0x270>
   90144:	e5922000 	ldr	r2, [r2]
   90148:	e3c22006 	bic	r2, r2, #6
   9014c:	e5832000 	str	r2, [r3]
   90150:	e59f31c8 	ldr	r3, [pc, #456]	; 90320 <led_mode+0x270>
   90154:	e59f21c4 	ldr	r2, [pc, #452]	; 90320 <led_mode+0x270>
   90158:	e5922000 	ldr	r2, [r2]
   9015c:	e3822004 	orr	r2, r2, #4
   90160:	e5832000 	str	r2, [r3]
   90164:	e59f31b8 	ldr	r3, [pc, #440]	; 90324 <led_mode+0x274>
   90168:	e59f21b4 	ldr	r2, [pc, #436]	; 90324 <led_mode+0x274>
   9016c:	e5922000 	ldr	r2, [r2]
   90170:	e3c22004 	bic	r2, r2, #4
   90174:	e5832000 	str	r2, [r3]
   90178:	ea000066 	b	90318 <led_mode+0x268>
   9017c:	e51b3008 	ldr	r3, [fp, #-8]
   90180:	e3530003 	cmp	r3, #3
   90184:	1a00000a 	bne	901b4 <led_mode+0x104>
   90188:	e59f3190 	ldr	r3, [pc, #400]	; 90320 <led_mode+0x270>
   9018c:	e59f218c 	ldr	r2, [pc, #396]	; 90320 <led_mode+0x270>
   90190:	e5922000 	ldr	r2, [r2]
   90194:	e3822006 	orr	r2, r2, #6
   90198:	e5832000 	str	r2, [r3]
   9019c:	e59f3180 	ldr	r3, [pc, #384]	; 90324 <led_mode+0x274>
   901a0:	e59f217c 	ldr	r2, [pc, #380]	; 90324 <led_mode+0x274>
   901a4:	e5922000 	ldr	r2, [r2]
   901a8:	e3c22006 	bic	r2, r2, #6
   901ac:	e5832000 	str	r2, [r3]
   901b0:	ea000058 	b	90318 <led_mode+0x268>
   901b4:	e51b3008 	ldr	r3, [fp, #-8]
   901b8:	e3530004 	cmp	r3, #4
   901bc:	1a000018 	bne	90224 <led_mode+0x174>
   901c0:	e59f3158 	ldr	r3, [pc, #344]	; 90320 <led_mode+0x270>
   901c4:	e59f2154 	ldr	r2, [pc, #340]	; 90320 <led_mode+0x270>
   901c8:	e5922000 	ldr	r2, [r2]
   901cc:	e3c22006 	bic	r2, r2, #6
   901d0:	e5832000 	str	r2, [r3]
   901d4:	e59f3144 	ldr	r3, [pc, #324]	; 90320 <led_mode+0x270>
   901d8:	e59f2140 	ldr	r2, [pc, #320]	; 90320 <led_mode+0x270>
   901dc:	e5922000 	ldr	r2, [r2]
   901e0:	e3822002 	orr	r2, r2, #2
   901e4:	e5832000 	str	r2, [r3]
   901e8:	e59f3134 	ldr	r3, [pc, #308]	; 90324 <led_mode+0x274>
   901ec:	e59f2130 	ldr	r2, [pc, #304]	; 90324 <led_mode+0x274>
   901f0:	e5922000 	ldr	r2, [r2]
   901f4:	e3822002 	orr	r2, r2, #2
   901f8:	e5832000 	str	r2, [r3]
   901fc:	e59f0124 	ldr	r0, [pc, #292]	; 90328 <led_mode+0x278>
   90200:	ebffff9b 	bl	90074 <delay>
   90204:	e59f3118 	ldr	r3, [pc, #280]	; 90324 <led_mode+0x274>
   90208:	e59f2114 	ldr	r2, [pc, #276]	; 90324 <led_mode+0x274>
   9020c:	e5922000 	ldr	r2, [r2]
   90210:	e3c22002 	bic	r2, r2, #2
   90214:	e5832000 	str	r2, [r3]
   90218:	e59f0108 	ldr	r0, [pc, #264]	; 90328 <led_mode+0x278>
   9021c:	ebffff94 	bl	90074 <delay>
   90220:	eafffff0 	b	901e8 <led_mode+0x138>
   90224:	e51b3008 	ldr	r3, [fp, #-8]
   90228:	e3530005 	cmp	r3, #5
   9022c:	1a000018 	bne	90294 <led_mode+0x1e4>
   90230:	e59f30e8 	ldr	r3, [pc, #232]	; 90320 <led_mode+0x270>
   90234:	e59f20e4 	ldr	r2, [pc, #228]	; 90320 <led_mode+0x270>
   90238:	e5922000 	ldr	r2, [r2]
   9023c:	e3c22006 	bic	r2, r2, #6
   90240:	e5832000 	str	r2, [r3]
   90244:	e59f30d4 	ldr	r3, [pc, #212]	; 90320 <led_mode+0x270>
   90248:	e59f20d0 	ldr	r2, [pc, #208]	; 90320 <led_mode+0x270>
   9024c:	e5922000 	ldr	r2, [r2]
   90250:	e3822004 	orr	r2, r2, #4
   90254:	e5832000 	str	r2, [r3]
   90258:	e59f30c4 	ldr	r3, [pc, #196]	; 90324 <led_mode+0x274>
   9025c:	e59f20c0 	ldr	r2, [pc, #192]	; 90324 <led_mode+0x274>
   90260:	e5922000 	ldr	r2, [r2]
   90264:	e3c22004 	bic	r2, r2, #4
   90268:	e5832000 	str	r2, [r3]
   9026c:	e59f00b4 	ldr	r0, [pc, #180]	; 90328 <led_mode+0x278>
   90270:	ebffff7f 	bl	90074 <delay>
   90274:	e59f30a8 	ldr	r3, [pc, #168]	; 90324 <led_mode+0x274>
   90278:	e59f20a4 	ldr	r2, [pc, #164]	; 90324 <led_mode+0x274>
   9027c:	e5922000 	ldr	r2, [r2]
   90280:	e3822004 	orr	r2, r2, #4
   90284:	e5832000 	str	r2, [r3]
   90288:	e59f0098 	ldr	r0, [pc, #152]	; 90328 <led_mode+0x278>
   9028c:	ebffff78 	bl	90074 <delay>
   90290:	eafffff0 	b	90258 <led_mode+0x1a8>
   90294:	e51b3008 	ldr	r3, [fp, #-8]
   90298:	e3530006 	cmp	r3, #6
   9029c:	1a00001d 	bne	90318 <led_mode+0x268>
   902a0:	e59f3078 	ldr	r3, [pc, #120]	; 90320 <led_mode+0x270>
   902a4:	e59f2074 	ldr	r2, [pc, #116]	; 90320 <led_mode+0x270>
   902a8:	e5922000 	ldr	r2, [r2]
   902ac:	e3822006 	orr	r2, r2, #6
   902b0:	e5832000 	str	r2, [r3]
   902b4:	e59f3068 	ldr	r3, [pc, #104]	; 90324 <led_mode+0x274>
   902b8:	e59f2064 	ldr	r2, [pc, #100]	; 90324 <led_mode+0x274>
   902bc:	e5922000 	ldr	r2, [r2]
   902c0:	e3822002 	orr	r2, r2, #2
   902c4:	e5832000 	str	r2, [r3]
   902c8:	e59f3054 	ldr	r3, [pc, #84]	; 90324 <led_mode+0x274>
   902cc:	e59f2050 	ldr	r2, [pc, #80]	; 90324 <led_mode+0x274>
   902d0:	e5922000 	ldr	r2, [r2]
   902d4:	e3c22004 	bic	r2, r2, #4
   902d8:	e5832000 	str	r2, [r3]
   902dc:	e59f0044 	ldr	r0, [pc, #68]	; 90328 <led_mode+0x278>
   902e0:	ebffff63 	bl	90074 <delay>
   902e4:	e59f3038 	ldr	r3, [pc, #56]	; 90324 <led_mode+0x274>
   902e8:	e59f2034 	ldr	r2, [pc, #52]	; 90324 <led_mode+0x274>
   902ec:	e5922000 	ldr	r2, [r2]
   902f0:	e3c22002 	bic	r2, r2, #2
   902f4:	e5832000 	str	r2, [r3]
   902f8:	e59f3024 	ldr	r3, [pc, #36]	; 90324 <led_mode+0x274>
   902fc:	e59f2020 	ldr	r2, [pc, #32]	; 90324 <led_mode+0x274>
   90300:	e5922000 	ldr	r2, [r2]
   90304:	e3822004 	orr	r2, r2, #4
   90308:	e5832000 	str	r2, [r3]
   9030c:	e59f0014 	ldr	r0, [pc, #20]	; 90328 <led_mode+0x278>
   90310:	ebffff57 	bl	90074 <delay>
   90314:	eaffffe6 	b	902b4 <led_mode+0x204>
   90318:	e24bd004 	sub	sp, fp, #4
   9031c:	e8bd8800 	pop	{fp, pc}
   90320:	ff7f0004 			; <UNDEFINED> instruction: 0xff7f0004
   90324:	ff7f0000 			; <UNDEFINED> instruction: 0xff7f0000
   90328:	000f4240 	andeq	r4, pc, r0, asr #4

0009032c <test_ddr>:
   9032c:	e92d4800 	push	{fp, lr}
   90330:	e28db004 	add	fp, sp, #4
   90334:	e24dd010 	sub	sp, sp, #16
   90338:	e3a03001 	mov	r3, #1
   9033c:	e50b3010 	str	r3, [fp, #-16]
   90340:	e3a03803 	mov	r3, #196608	; 0x30000
   90344:	e50b300c 	str	r3, [fp, #-12]
   90348:	e3a03000 	mov	r3, #0
   9034c:	e50b3008 	str	r3, [fp, #-8]
   90350:	ea000008 	b	90378 <test_ddr+0x4c>
   90354:	e51b300c 	ldr	r3, [fp, #-12]
   90358:	e51b2008 	ldr	r2, [fp, #-8]
   9035c:	e5832000 	str	r2, [r3]
   90360:	e51b300c 	ldr	r3, [fp, #-12]
   90364:	e2833004 	add	r3, r3, #4
   90368:	e50b300c 	str	r3, [fp, #-12]
   9036c:	e51b3008 	ldr	r3, [fp, #-8]
   90370:	e2833001 	add	r3, r3, #1
   90374:	e50b3008 	str	r3, [fp, #-8]
   90378:	e51b3008 	ldr	r3, [fp, #-8]
   9037c:	e3530601 	cmp	r3, #1048576	; 0x100000
   90380:	bafffff3 	blt	90354 <test_ddr+0x28>
   90384:	e3a03803 	mov	r3, #196608	; 0x30000
   90388:	e50b300c 	str	r3, [fp, #-12]
   9038c:	e3a03000 	mov	r3, #0
   90390:	e50b3008 	str	r3, [fp, #-8]
   90394:	ea00000d 	b	903d0 <test_ddr+0xa4>
   90398:	e51b2008 	ldr	r2, [fp, #-8]
   9039c:	e51b300c 	ldr	r3, [fp, #-12]
   903a0:	e5933000 	ldr	r3, [r3]
   903a4:	e1520003 	cmp	r2, r3
   903a8:	0a000002 	beq	903b8 <test_ddr+0x8c>
   903ac:	e3a03000 	mov	r3, #0
   903b0:	e50b3010 	str	r3, [fp, #-16]
   903b4:	ea000008 	b	903dc <test_ddr+0xb0>
   903b8:	e51b300c 	ldr	r3, [fp, #-12]
   903bc:	e2833004 	add	r3, r3, #4
   903c0:	e50b300c 	str	r3, [fp, #-12]
   903c4:	e51b3008 	ldr	r3, [fp, #-8]
   903c8:	e2833001 	add	r3, r3, #1
   903cc:	e50b3008 	str	r3, [fp, #-8]
   903d0:	e51b3008 	ldr	r3, [fp, #-8]
   903d4:	e3530601 	cmp	r3, #1048576	; 0x100000
   903d8:	baffffee 	blt	90398 <test_ddr+0x6c>
   903dc:	e3a03803 	mov	r3, #196608	; 0x30000
   903e0:	e5933000 	ldr	r3, [r3]
   903e4:	e3530001 	cmp	r3, #1
   903e8:	1a000002 	bne	903f8 <test_ddr+0xcc>
   903ec:	e3a00001 	mov	r0, #1
   903f0:	ebffff2e 	bl	900b0 <led_mode>
   903f4:	ea000008 	b	9041c <test_ddr+0xf0>
   903f8:	e59f3024 	ldr	r3, [pc, #36]	; 90424 <test_ddr+0xf8>
   903fc:	e5933000 	ldr	r3, [r3]
   90400:	e3530008 	cmp	r3, #8
   90404:	1a000002 	bne	90414 <test_ddr+0xe8>
   90408:	e3a00003 	mov	r0, #3
   9040c:	ebffff27 	bl	900b0 <led_mode>
   90410:	ea000001 	b	9041c <test_ddr+0xf0>
   90414:	e3a00002 	mov	r0, #2
   90418:	ebffff24 	bl	900b0 <led_mode>
   9041c:	e24bd004 	sub	sp, fp, #4
   90420:	e8bd8800 	pop	{fp, pc}
   90424:	00030020 	andeq	r0, r3, r0, lsr #32
